; ModuleID = '35/1461.c'
source_filename = "35/1461.c"
target datalayout = "e-m:e-p270:32:32-p271:32:32-p272:64:64-i64:64-f80:128-n8:16:32:64-S128"
target triple = "x86_64-pc-linux-gnu"

@.str = private unnamed_addr constant [6 x i8] c"%d,%d\00", align 1
@.str.1 = private unnamed_addr constant [3 x i8] c"%d\00", align 1
@.str.2 = private unnamed_addr constant [6 x i8] c"%d+%d\00", align 1
@.str.3 = private unnamed_addr constant [3 x i8] c"No\00", align 1

; Function Attrs: noinline nounwind uwtable
define dso_local i32 @main() #0 {
  %1 = alloca i32, align 4
  %2 = alloca [100 x [100 x i32]], align 16
  %3 = alloca i32, align 4
  %4 = alloca i32, align 4
  %5 = alloca i32, align 4
  %6 = alloca i32, align 4
  %7 = alloca i32, align 4
  %8 = alloca i32, align 4
  %9 = alloca i32, align 4
  %10 = alloca i32, align 4
  %11 = alloca i32, align 4
  store i32 0, i32* %1, align 4
  store i32 0, i32* %9, align 4
  store i32 0, i32* %10, align 4
  store i32 0, i32* %11, align 4
  %12 = call i32 (i8*, ...) @__isoc99_scanf(i8* getelementptr inbounds ([6 x i8], [6 x i8]* @.str, i64 0, i64 0), i32* %7, i32* %8)
  store i32 0, i32* %3, align 4
  br label %13

13:                                               ; preds = %34, %0
  %14 = load i32, i32* %3, align 4
  %15 = load i32, i32* %7, align 4
  %16 = icmp slt i32 %14, %15
  br i1 %16, label %17, label %37

17:                                               ; preds = %13
  store i32 0, i32* %4, align 4
  br label %18

18:                                               ; preds = %30, %17
  %19 = load i32, i32* %4, align 4
  %20 = load i32, i32* %8, align 4
  %21 = icmp slt i32 %19, %20
  br i1 %21, label %22, label %33

22:                                               ; preds = %18
  %23 = load i32, i32* %3, align 4
  %24 = sext i32 %23 to i64
  %25 = getelementptr inbounds [100 x [100 x i32]], [100 x [100 x i32]]* %2, i64 0, i64 %24
  %26 = load i32, i32* %4, align 4
  %27 = sext i32 %26 to i64
  %28 = getelementptr inbounds [100 x i32], [100 x i32]* %25, i64 0, i64 %27
  %29 = call i32 (i8*, ...) @__isoc99_scanf(i8* getelementptr inbounds ([3 x i8], [3 x i8]* @.str.1, i64 0, i64 0), i32* %28)
  br label %30

30:                                               ; preds = %22
  %31 = load i32, i32* %4, align 4
  %32 = add nsw i32 %31, 1
  store i32 %32, i32* %4, align 4
  br label %18

33:                                               ; preds = %18
  br label %34

34:                                               ; preds = %33
  %35 = load i32, i32* %3, align 4
  %36 = add nsw i32 %35, 1
  store i32 %36, i32* %3, align 4
  br label %13

37:                                               ; preds = %13
  store i32 0, i32* %3, align 4
  br label %38

38:                                               ; preds = %155, %37
  %39 = load i32, i32* %3, align 4
  %40 = load i32, i32* %7, align 4
  %41 = icmp slt i32 %39, %40
  br i1 %41, label %42, label %158

42:                                               ; preds = %38
  store i32 0, i32* %4, align 4
  br label %43

43:                                               ; preds = %151, %42
  %44 = load i32, i32* %4, align 4
  %45 = load i32, i32* %8, align 4
  %46 = icmp slt i32 %44, %45
  br i1 %46, label %47, label %154

47:                                               ; preds = %43
  store i32 0, i32* %5, align 4
  br label %48

48:                                               ; preds = %147, %47
  %49 = load i32, i32* %5, align 4
  %50 = load i32, i32* %8, align 4
  %51 = icmp slt i32 %49, %50
  br i1 %51, label %52, label %150

52:                                               ; preds = %48
  %53 = load i32, i32* %3, align 4
  %54 = sext i32 %53 to i64
  %55 = getelementptr inbounds [100 x [100 x i32]], [100 x [100 x i32]]* %2, i64 0, i64 %54
  %56 = load i32, i32* %4, align 4
  %57 = sext i32 %56 to i64
  %58 = getelementptr inbounds [100 x i32], [100 x i32]* %55, i64 0, i64 %57
  %59 = load i32, i32* %58, align 4
  %60 = load i32, i32* %3, align 4
  %61 = sext i32 %60 to i64
  %62 = getelementptr inbounds [100 x [100 x i32]], [100 x [100 x i32]]* %2, i64 0, i64 %61
  %63 = load i32, i32* %5, align 4
  %64 = sext i32 %63 to i64
  %65 = getelementptr inbounds [100 x i32], [100 x i32]* %62, i64 0, i64 %64
  %66 = load i32, i32* %65, align 4
  %67 = icmp slt i32 %59, %66
  br i1 %67, label %68, label %69

68:                                               ; preds = %52
  br label %150

69:                                               ; preds = %52
  %70 = load i32, i32* %3, align 4
  %71 = sext i32 %70 to i64
  %72 = getelementptr inbounds [100 x [100 x i32]], [100 x [100 x i32]]* %2, i64 0, i64 %71
  %73 = load i32, i32* %4, align 4
  %74 = sext i32 %73 to i64
  %75 = getelementptr inbounds [100 x i32], [100 x i32]* %72, i64 0, i64 %74
  %76 = load i32, i32* %75, align 4
  %77 = load i32, i32* %3, align 4
  %78 = sext i32 %77 to i64
  %79 = getelementptr inbounds [100 x [100 x i32]], [100 x [100 x i32]]* %2, i64 0, i64 %78
  %80 = load i32, i32* %5, align 4
  %81 = sext i32 %80 to i64
  %82 = getelementptr inbounds [100 x i32], [100 x i32]* %79, i64 0, i64 %81
  %83 = load i32, i32* %82, align 4
  %84 = icmp sge i32 %76, %83
  br i1 %84, label %85, label %88

85:                                               ; preds = %69
  %86 = load i32, i32* %9, align 4
  %87 = add nsw i32 %86, 1
  store i32 %87, i32* %9, align 4
  br label %88

88:                                               ; preds = %85, %69
  %89 = load i32, i32* %9, align 4
  %90 = load i32, i32* %8, align 4
  %91 = icmp eq i32 %89, %90
  br i1 %91, label %92, label %146

92:                                               ; preds = %88
  store i32 0, i32* %6, align 4
  br label %93

93:                                               ; preds = %142, %92
  %94 = load i32, i32* %6, align 4
  %95 = load i32, i32* %7, align 4
  %96 = icmp slt i32 %94, %95
  br i1 %96, label %97, label %145

97:                                               ; preds = %93
  %98 = load i32, i32* %3, align 4
  %99 = sext i32 %98 to i64
  %100 = getelementptr inbounds [100 x [100 x i32]], [100 x [100 x i32]]* %2, i64 0, i64 %99
  %101 = load i32, i32* %4, align 4
  %102 = sext i32 %101 to i64
  %103 = getelementptr inbounds [100 x i32], [100 x i32]* %100, i64 0, i64 %102
  %104 = load i32, i32* %103, align 4
  %105 = load i32, i32* %6, align 4
  %106 = sext i32 %105 to i64
  %107 = getelementptr inbounds [100 x [100 x i32]], [100 x [100 x i32]]* %2, i64 0, i64 %106
  %108 = load i32, i32* %4, align 4
  %109 = sext i32 %108 to i64
  %110 = getelementptr inbounds [100 x i32], [100 x i32]* %107, i64 0, i64 %109
  %111 = load i32, i32* %110, align 4
  %112 = icmp sgt i32 %104, %111
  br i1 %112, label %113, label %114

113:                                              ; preds = %97
  br label %145

114:                                              ; preds = %97
  %115 = load i32, i32* %3, align 4
  %116 = sext i32 %115 to i64
  %117 = getelementptr inbounds [100 x [100 x i32]], [100 x [100 x i32]]* %2, i64 0, i64 %116
  %118 = load i32, i32* %4, align 4
  %119 = sext i32 %118 to i64
  %120 = getelementptr inbounds [100 x i32], [100 x i32]* %117, i64 0, i64 %119
  %121 = load i32, i32* %120, align 4
  %122 = load i32, i32* %6, align 4
  %123 = sext i32 %122 to i64
  %124 = getelementptr inbounds [100 x [100 x i32]], [100 x [100 x i32]]* %2, i64 0, i64 %123
  %125 = load i32, i32* %4, align 4
  %126 = sext i32 %125 to i64
  %127 = getelementptr inbounds [100 x i32], [100 x i32]* %124, i64 0, i64 %126
  %128 = load i32, i32* %127, align 4
  %129 = icmp sle i32 %121, %128
  br i1 %129, label %130, label %133

130:                                              ; preds = %114
  %131 = load i32, i32* %10, align 4
  %132 = add nsw i32 %131, 1
  store i32 %132, i32* %10, align 4
  br label %133

133:                                              ; preds = %130, %114
  %134 = load i32, i32* %10, align 4
  %135 = load i32, i32* %7, align 4
  %136 = icmp eq i32 %134, %135
  br i1 %136, label %137, label %141

137:                                              ; preds = %133
  %138 = load i32, i32* %3, align 4
  %139 = load i32, i32* %4, align 4
  %140 = call i32 (i8*, ...) @printf(i8* getelementptr inbounds ([6 x i8], [6 x i8]* @.str.2, i64 0, i64 0), i32 %138, i32 %139)
  store i32 1, i32* %11, align 4
  br label %141

141:                                              ; preds = %137, %133
  br label %142

142:                                              ; preds = %141
  %143 = load i32, i32* %6, align 4
  %144 = add nsw i32 %143, 1
  store i32 %144, i32* %6, align 4
  br label %93

145:                                              ; preds = %113, %93
  br label %146

146:                                              ; preds = %145, %88
  br label %147

147:                                              ; preds = %146
  %148 = load i32, i32* %5, align 4
  %149 = add nsw i32 %148, 1
  store i32 %149, i32* %5, align 4
  br label %48

150:                                              ; preds = %68, %48
  br label %151

151:                                              ; preds = %150
  %152 = load i32, i32* %4, align 4
  %153 = add nsw i32 %152, 1
  store i32 %153, i32* %4, align 4
  br label %43

154:                                              ; preds = %43
  br label %155

155:                                              ; preds = %154
  %156 = load i32, i32* %3, align 4
  %157 = add nsw i32 %156, 1
  store i32 %157, i32* %3, align 4
  br label %38

158:                                              ; preds = %38
  %159 = load i32, i32* %11, align 4
  %160 = icmp ne i32 %159, 1
  br i1 %160, label %161, label %163

161:                                              ; preds = %158
  %162 = call i32 (i8*, ...) @printf(i8* getelementptr inbounds ([3 x i8], [3 x i8]* @.str.3, i64 0, i64 0))
  br label %163

163:                                              ; preds = %161, %158
  ret i32 0
}

declare dso_local i32 @__isoc99_scanf(i8*, ...) #1

declare dso_local i32 @printf(i8*, ...) #1


!llvm.module.flags = !{!0}
!llvm.ident = !{!1}

!0 = !{i32 1, !"wchar_size", i32 4}
!1 = !{!"clang version 10.0.0-4ubuntu1 "}
